(dp0
I66178
(lp1
S'0x10282'
p2
aS'Microsoft Lync          '
p3
a(I-32000
I-32000
I-31840
I-31973
tp4
a(I0
I2
(I-32000
I-32000
tp5
(I-1
I-1
tp6
(I-39
I353
I1241
I1002
tp7
tp8
asI65928
(lp9
S'0x10188'
p10
aS'Network Traffic'
p11
a(I1760
I0
I1920
I112
tp12
a(I0
I1
(I-1
I-1
tp13
(I-1
I-1
tp14
(I1760
I0
I1920
I112
tp15
tp16
asI65932
(lp17
S'0x1018c'
p18
aS'.:IntelCoreSeries:.'
p19
a(I1760
I112
I1920
I232
tp20
a(I0
I1
(I-1
I-1
tp21
(I-1
I-1
tp22
(I1760
I112
I1920
I232
tp23
tp24
asI1318914
(lp25
S'0x142002'
p26
aS'10.103.62.84 - PuTTY'
p27
a(I-32000
I-32000
I-31840
I-31973
tp28
a(I2
I2
(I-32000
I-32000
tp29
(I-1
I-1
tp30
(I965
I556
I1640
I980
tp31
tp32
asI65936
(lp33
S'0x10190'
p34
aS''
p35
a(I1769
I5
I1899
I107
tp36
a(I0
I1
(I-1
I-1
tp37
(I-1
I-1
tp38
(I1769
I5
I1899
I107
tp39
tp40
asI9835352
(lp41
S'0x961358'
p42
aS'C:\\Windows\\system32\\cmd.exe'
p43
a(I-32000
I-32000
I-31840
I-31973
tp44
a(I0
I2
(I-32000
I-32000
tp45
(I-1
I-1
tp46
(I225
I225
I902
I667
tp47
tp48
asI65938
(lp49
S'0x10192'
p50
ag35
a(I1769
I117
I1899
I227
tp51
a(I0
I1
(I-1
I-1
tp52
(I-1
I-1
tp53
(I1769
I117
I1899
I227
tp54
tp55
asI460700
(lp56
S'0x7079c'
p57
aS'K2-cms@10.103.226.143 Project - Source Insight - [Avtcontainer.cpp (policy\\config)]'
p58
a(I-32000
I-32000
I-31840
I-31973
tp59
a(I2
I2
(I-32000
I-32000
tp60
(I-1
I-1
tp61
(I713
I226
I1154
I954
tp62
tp63
asI4397982
(lp64
S'0x431b9e'
p65
aS'3/27/2015 Planet China Program SH SonicWALL Site Kick Off is Coming~~~\xbd\xb1\xc6\xb7\xb7\xe1\xb8\xbb\xb5\xc8\xc4\xe3\xc0\xb4\xc4\xc3\xa3\xa1 - Message (HTML) '
p66
a(I-32000
I-32000
I-31840
I-31973
tp67
a(I0
I2
(I-32000
I-32000
tp68
(I-1
I-1
tp69
(I434
I252
I1714
I980
tp70
tp71
asI7669162
(lp72
S'0x7505aa'
p73
aS'C:\\Windows\\system32\\cmd.exe'
p74
a(I-32000
I-32000
I-31840
I-31973
tp75
a(I0
I2
(I-32000
I-32000
tp76
(I-1
I-1
tp77
(I100
I100
I777
I542
tp78
tp79
asI922032
(lp80
S'0xe11b0'
p81
aS'??Lynn (Ling) Zhang??'
p82
a(I-32000
I-32000
I-31840
I-31973
tp83
a(I0
I2
(I-32000
I-32000
tp84
(I-1
I-1
tp85
(I2315
I132
I2762
I722
tp86
tp87
asI65718
(lp88
S'0x100b6'
p89
ag35
a(I0
I1160
I1920
I1200
tp90
a(I0
I1
(I-1
I-1
tp91
(I-1
I-1
tp92
(I0
I1160
I1920
I1200
tp93
tp94
asI2557368
(lp95
S'0x2705b8'
p96
aS'Git Gui (WindowsPositionKeeper) E:/git_repository/WindowsPositionKeeper'
p97
a(I428
I379
I1708
I1028
tp98
a(I0
I1
(I-32000
I-32000
tp99
(I-1
I-1
tp100
(I428
I379
I1708
I1028
tp101
tp102
asI4658036
(lp103
S'0x471374'
p104
aS'C:\\Windows\\system32\\cmd.exe'
p105
a(I652
I240
I1329
I922
tp106
a(I0
I1
(I-1
I-1
tp107
(I-1
I-1
tp108
(I652
I240
I1329
I922
tp109
tp110
asI3808954
(lp111
S'0x3a1eba'
p112
ag35
a(I1920
I72
I3200
I721
tp113
a(I0
I1
(I-1
I-1
tp114
(I-1
I-1
tp115
(I1920
I72
I3200
I721
tp116
tp117
asI65724
(lp118
S'0x100bc'
p119
aS'Start'
p120
a(I0
I1160
I54
I1200
tp121
a(I0
I1
(I-1
I-1
tp122
(I-1
I-1
tp123
(I0
I1160
I54
I1200
tp124
tp125
asI2301528
(lp126
S'0x231e58'
p127
aS'C:\\Windows\\system32\\cmd.exe'
p128
a(I275
I275
I952
I717
tp129
a(I0
I1
(I-1
I-1
tp130
(I-1
I-1
tp131
(I275
I275
I952
I717
tp132
tp133
asI3805112
(lp134
S'0x3a0fb8'
p135
aS'Inbox - Microsoft Outlook'
p136
a(I-32000
I-32000
I-31840
I-31973
tp137
a(I2
I2
(I-32000
I-32000
tp138
(I-1
I-1
tp139
(I1920
I72
I3200
I721
tp140
tp141
asI65878
(lp142
S'0x10156'
p143
aS'Program Manager'
p144
a(I0
I0
I3200
I1200
tp145
a(I0
I1
(I-1
I-1
tp146
(I-1
I-1
tp147
(I0
I0
I3200
I1200
tp148
tp149
asI6164952
(lp150
S'0x5e11d8'
p151
aS'C:\\Windows\\system32\\cmd.exe'
p152
a(I-32000
I-32000
I-31840
I-31973
tp153
a(I0
I2
(I-32000
I-32000
tp154
(I-1
I-1
tp155
(I2039
I85
I2716
I911
tp156
tp157
asI4659932
(lp158
S'0x471adc'
p159
aS'C:\\Windows\\system32\\cmd.exe'
p160
a(I125
I125
I802
I567
tp161
a(I0
I1
(I-1
I-1
tp162
(I-1
I-1
tp163
(I125
I125
I802
I567
tp164
tp165
asI2301918
(lp166
S'0x231fde'
p167
aS'test.bat - Notepad'
p168
a(I-32000
I-32000
I-31840
I-31973
tp169
a(I0
I2
(I-32000
I-32000
tp170
(I-1
I-1
tp171
(I550
I254
I1741
I1034
tp172
tp173
asI14616674
(lp174
S'0xdf0862'
p175
aS'Kanga-10.103.226.143 Project - Source Insight - [Api_logon_rpc.cpp (modules\\apache\\api)]'
p176
a(I-32000
I-32000
I-31840
I-31973
tp177
a(I2
I2
(I-32000
I-32000
tp178
(I-1
I-1
tp179
(I0
I0
I1220
I728
tp180
tp181
asI8525412
(lp182
S'0x821664'
p183
aS'WindowsPositionKeeper'
p184
a(I256
I337
I1536
I986
tp185
a(I0
I1
(I-32000
I-32000
tp186
(I-1
I-1
tp187
(I256
I337
I1536
I986
tp188
tp189
asI991078
(lp190
S'0xf1f66'
p191
aS'10.103.62.84 - PuTTY'
p192
a(I-32000
I-32000
I-31840
I-31973
tp193
a(I2
I2
(I-32000
I-32000
tp194
(I-1
I-1
tp195
(I2041
I204
I2716
I628
tp196
tp197
asI3939444
(lp198
S'0x3c1c74'
p199
aS'New Tab - Google Chrome'
p200
a(I-8
I-8
I1928
I1168
tp201
a(I2
I3
(I-1
I-1
tp202
(I-1
I-1
tp203
(I-8
I-8
I1928
I1168
tp204
tp205
asI328314
(lp206
S'0x5027a'
p207
aS'\xd3\xd0\xb5\xc0\xb4\xca\xb5\xe4'
p208
a(I-32000
I-32000
I-31840
I-31973
tp209
a(I0
I2
(I-32000
I-32000
tp210
(I-1
I-1
tp211
(I1920
I72
I3200
I721
tp212
tp213
asI2431484
(lp214
S'0x2519fc'
p215
aS'main.py - E:\\git_repository\\WindowsPositionKeeper\\main.py'
p216
a(I225
I225
I1539
I946
tp217
a(I0
I1
(I-32000
I-32000
tp218
(I-1
I-1
tp219
(I225
I225
I1539
I946
tp220
tp221
asI400696
(lp222
S'0x61d38'
p223
aS'E:\\git_repository\\WindowsPositionKeeper\\README.md - Notepad++'
p224
a(I-32000
I-32000
I-31840
I-31973
tp225
a(I0
I2
(I-32000
I-32000
tp226
(I-1
I-1
tp227
(I314
I235
I1594
I884
tp228
tp229
as.